target datalayout = "e-m:e-p270:32:32-p271:32:32-p272:64:64-i64:64-i128:128-f80:128-n8:16:32:64-S128"
target triple = "x86_64-pc-linux-gnu"

%struct.ll_merge_driver = type { ptr, ptr, ptr, ptr, ptr, ptr }

@.str.2 = private unnamed_addr constant [6 x i8] c"merge\00", align 1
@default_ll_merge = internal global ptr null, align 8
@ll_user_merge = internal global ptr null, align 8
@ll_user_merge_tail = internal global ptr null, align 8
@.str.4 = private unnamed_addr constant [14 x i8] c"merge.default\00", align 1
@.str.5 = private unnamed_addr constant [5 x i8] c"name\00", align 1
@.str.6 = private unnamed_addr constant [7 x i8] c"driver\00", align 1
@.str.7 = private unnamed_addr constant [10 x i8] c"recursive\00", align 1

; Function Attrs: inlinehint nounwind uwtable
define internal i32 @const_error() #3 {
  ret i32 -1
}

; Function Attrs: nounwind uwtable
define internal i32 @read_merge_config(ptr noundef %0, ptr noundef %1, ptr noundef %2, ptr noundef %3) #0 {
  %5 = alloca i32, align 4
  %6 = alloca ptr, align 8
  %7 = alloca ptr, align 8
  %8 = alloca ptr, align 8
  %9 = alloca ptr, align 8
  %10 = alloca ptr, align 8
  %11 = alloca ptr, align 8
  %12 = alloca ptr, align 8
  %13 = alloca i64, align 8
  %14 = alloca i32, align 4
  store ptr %0, ptr %6, align 8, !tbaa !11
  store ptr %1, ptr %7, align 8, !tbaa !11
  store ptr %2, ptr %8, align 8, !tbaa !56
  store ptr %3, ptr %9, align 8, !tbaa !53
  call void @llvm.lifetime.start.p0(i64 8, ptr %10) #10
  call void @llvm.lifetime.start.p0(i64 8, ptr %11) #10
  call void @llvm.lifetime.start.p0(i64 8, ptr %12) #10
  call void @llvm.lifetime.start.p0(i64 8, ptr %13) #10
  %15 = load ptr, ptr %6, align 8, !tbaa !11
  %16 = call i32 @strcmp(ptr noundef %15, ptr noundef @.str.4) #12
  %17 = icmp ne i32 %16, 0
  br i1 %17, label %22, label %18

18:                                               ; preds = %4
  %19 = load ptr, ptr %6, align 8, !tbaa !11
  %20 = load ptr, ptr %7, align 8, !tbaa !11
  %21 = call i32 @git_config_string(ptr noundef @default_ll_merge, ptr noundef %19, ptr noundef %20)
  store i32 %21, ptr %5, align 4
  store i32 1, ptr %14, align 4
  br label %102

22:                                               ; preds = %4
  %23 = load ptr, ptr %6, align 8, !tbaa !11
  %24 = call i32 @parse_config_key(ptr noundef %23, ptr noundef @.str.2, ptr noundef %12, ptr noundef %13, ptr noundef %11)
  %25 = icmp slt i32 %24, 0
  br i1 %25, label %29, label %26

26:                                               ; preds = %22
  %27 = load ptr, ptr %12, align 8, !tbaa !11
  %28 = icmp ne ptr %27, null
  br i1 %28, label %30, label %29

29:                                               ; preds = %26, %22
  store i32 0, ptr %5, align 4
  store i32 1, ptr %14, align 4
  br label %102

30:                                               ; preds = %26
  %31 = load ptr, ptr @ll_user_merge, align 8, !tbaa !29
  store ptr %31, ptr %10, align 8, !tbaa !29
  br label %32

32:                                               ; preds = %45, %30
  %33 = load ptr, ptr %10, align 8, !tbaa !29
  %34 = icmp ne ptr %33, null
  br i1 %34, label %35, label %49

35:                                               ; preds = %32
  %36 = load ptr, ptr %10, align 8, !tbaa !29
  %37 = getelementptr inbounds nuw %struct.ll_merge_driver, ptr %36, i32 0, i32 0
  %38 = load ptr, ptr %37, align 8, !tbaa !46
  %39 = load ptr, ptr %12, align 8, !tbaa !11
  %40 = load i64, ptr %13, align 8, !tbaa !44
  %41 = call i32 @xstrncmpz(ptr noundef %38, ptr noundef %39, i64 noundef %40)
  %42 = icmp ne i32 %41, 0
  br i1 %42, label %44, label %43

43:                                               ; preds = %35
  br label %49

44:                                               ; preds = %35
  br label %45

45:                                               ; preds = %44
  %46 = load ptr, ptr %10, align 8, !tbaa !29
  %47 = getelementptr inbounds nuw %struct.ll_merge_driver, ptr %46, i32 0, i32 4
  %48 = load ptr, ptr %47, align 8, !tbaa !47
  store ptr %48, ptr %10, align 8, !tbaa !29
  br label %32, !llvm.loop !58

49:                                               ; preds = %43, %32
  %50 = load ptr, ptr %10, align 8, !tbaa !29
  %51 = icmp ne ptr %50, null
  br i1 %51, label %65, label %52

52:                                               ; preds = %49
  %53 = call ptr @xcalloc(i64 noundef 1, i64 noundef 48)
  store ptr %53, ptr %10, align 8, !tbaa !29
  %54 = load ptr, ptr %12, align 8, !tbaa !11
  %55 = load i64, ptr %13, align 8, !tbaa !44
  %56 = call ptr @xmemdupz(ptr noundef %54, i64 noundef %55)
  %57 = load ptr, ptr %10, align 8, !tbaa !29
  %58 = getelementptr inbounds nuw %struct.ll_merge_driver, ptr %57, i32 0, i32 0
  store ptr %56, ptr %58, align 8, !tbaa !46
  %59 = load ptr, ptr %10, align 8, !tbaa !29
  %60 = getelementptr inbounds nuw %struct.ll_merge_driver, ptr %59, i32 0, i32 2
  store ptr @ll_ext_merge, ptr %60, align 8, !tbaa !36
  %61 = load ptr, ptr %10, align 8, !tbaa !29
  %62 = load ptr, ptr @ll_user_merge_tail, align 8, !tbaa !51
  store ptr %61, ptr %62, align 8, !tbaa !29
  %63 = load ptr, ptr %10, align 8, !tbaa !29
  %64 = getelementptr inbounds nuw %struct.ll_merge_driver, ptr %63, i32 0, i32 4
  store ptr %64, ptr @ll_user_merge_tail, align 8, !tbaa !51
  br label %65

65:                                               ; preds = %52, %49
  %66 = load ptr, ptr %11, align 8, !tbaa !11
  %67 = call i32 @strcmp(ptr noundef @.str.5, ptr noundef %66) #12
  %68 = icmp ne i32 %67, 0
  br i1 %68, label %75, label %69

69:                                               ; preds = %65
  %70 = load ptr, ptr %10, align 8, !tbaa !29
  %71 = getelementptr inbounds nuw %struct.ll_merge_driver, ptr %70, i32 0, i32 1
  %72 = load ptr, ptr %6, align 8, !tbaa !11
  %73 = load ptr, ptr %7, align 8, !tbaa !11
  %74 = call i32 @git_config_string(ptr noundef %71, ptr noundef %72, ptr noundef %73)
  store i32 %74, ptr %5, align 4
  store i32 1, ptr %14, align 4
  br label %102

75:                                               ; preds = %65
  %76 = load ptr, ptr %11, align 8, !tbaa !11
  %77 = call i32 @strcmp(ptr noundef @.str.6, ptr noundef %76) #12
  %78 = icmp ne i32 %77, 0
  br i1 %78, label %91, label %79

79:                                               ; preds = %75
  %80 = load ptr, ptr %7, align 8, !tbaa !11
  %81 = icmp ne ptr %80, null
  br i1 %81, label %86, label %82

82:                                               ; preds = %79
  %83 = load ptr, ptr %6, align 8, !tbaa !11
  %84 = call i32 @config_error_nonbool(ptr noundef %83)
  %85 = call i32 @const_error()
  store i32 %85, ptr %5, align 4
  store i32 1, ptr %14, align 4
  br label %102

86:                                               ; preds = %79
  %87 = load ptr, ptr %7, align 8, !tbaa !11
  %88 = call ptr @xstrdup(ptr noundef %87)
  %89 = load ptr, ptr %10, align 8, !tbaa !29
  %90 = getelementptr inbounds nuw %struct.ll_merge_driver, ptr %89, i32 0, i32 5
  store ptr %88, ptr %90, align 8, !tbaa !59
  store i32 0, ptr %5, align 4
  store i32 1, ptr %14, align 4
  br label %102

91:                                               ; preds = %75
  %92 = load ptr, ptr %11, align 8, !tbaa !11
  %93 = call i32 @strcmp(ptr noundef @.str.7, ptr noundef %92) #12
  %94 = icmp ne i32 %93, 0
  br i1 %94, label %101, label %95

95:                                               ; preds = %91
  %96 = load ptr, ptr %10, align 8, !tbaa !29
  %97 = getelementptr inbounds nuw %struct.ll_merge_driver, ptr %96, i32 0, i32 3
  %98 = load ptr, ptr %6, align 8, !tbaa !11
  %99 = load ptr, ptr %7, align 8, !tbaa !11
  %100 = call i32 @git_config_string(ptr noundef %97, ptr noundef %98, ptr noundef %99)
  store i32 %100, ptr %5, align 4
  store i32 1, ptr %14, align 4
  br label %102

101:                                              ; preds = %91
  store i32 0, ptr %5, align 4
  store i32 1, ptr %14, align 4
  br label %102

102:                                              ; preds = %101, %95, %86, %82, %69, %29, %18
  call void @llvm.lifetime.end.p0(i64 8, ptr %13) #10
  call void @llvm.lifetime.end.p0(i64 8, ptr %12) #10
  call void @llvm.lifetime.end.p0(i64 8, ptr %11) #10
  call void @llvm.lifetime.end.p0(i64 8, ptr %10) #10
  %103 = load i32, ptr %5, align 4
  ret i32 %103
}