; Function Attrs: nounwind uwtable
define internal i32 @read_merge_config(ptr noundef %0, ptr noundef %1, ptr readnone captures(none) %2, ptr readnone captures(none) %3) #0 {
  %5 = alloca ptr, align 8
  %6 = alloca ptr, align 8
  %7 = alloca i64, align 8
  call void @llvm.lifetime.start.p0(i64 8, ptr nonnull %5) #15
  call void @llvm.lifetime.start.p0(i64 8, ptr nonnull %6) #15
  call void @llvm.lifetime.start.p0(i64 8, ptr nonnull %7) #15
  %8 = tail call i32 @strcmp(ptr noundef nonnull dereferenceable(1) %0, ptr noundef nonnull dereferenceable(14) @.str.4) #17
  %.not = icmp eq i32 %8, 0
  br i1 %.not, label %9, label %11

9:                                                ; preds = %4
  %10 = tail call i32 @git_config_string(ptr noundef nonnull @default_ll_merge, ptr noundef nonnull %0, ptr noundef %1) #15
  br label %47

11:                                               ; preds = %4
  %12 = call i32 @parse_config_key(ptr noundef nonnull %0, ptr noundef nonnull @.str.2, ptr noundef nonnull %6, ptr noundef nonnull %7, ptr noundef nonnull %5) #15
  %13 = icmp sgt i32 %12, -1
  %14 = load ptr, ptr %6, align 8
  %15 = icmp ne ptr %14, null
  %or.cond = select i1 %13, i1 %15, i1 false
  br i1 %or.cond, label %.preheader, label %47

.preheader:                                       ; preds = %11
  %.032 = load ptr, ptr @ll_user_merge, align 8, !tbaa !32
  %.not2533 = icmp eq ptr %.032, null
  br i1 %.not2533, label %.critedge, label %.lr.ph

.lr.ph:                                           ; preds = %.preheader, %20
  %.034 = phi ptr [ %.0, %20 ], [ %.032, %.preheader ]
  %16 = load ptr, ptr %.034, align 8, !tbaa !34
  %17 = load ptr, ptr %6, align 8, !tbaa !26
  %18 = load i64, ptr %7, align 8, !tbaa !43
  %19 = call i32 @xstrncmpz(ptr noundef %16, ptr noundef %17, i64 noundef %18) #15
  %.not26 = icmp eq i32 %19, 0
  br i1 %.not26, label %.loopexit, label %20

20:                                               ; preds = %.lr.ph
  %21 = getelementptr inbounds nuw i8, ptr %.034, i64 32
  %.0 = load ptr, ptr %21, align 8, !tbaa !32
  %.not25 = icmp eq ptr %.0, null
  br i1 %.not25, label %.critedge, label %.lr.ph, !llvm.loop !44

.critedge:                                        ; preds = %20, %.preheader
  %22 = call ptr @xcalloc(i64 noundef 1, i64 noundef 48) #15
  %23 = load ptr, ptr %6, align 8, !tbaa !26
  %24 = load i64, ptr %7, align 8, !tbaa !43
  %25 = call ptr @xmemdupz(ptr noundef %23, i64 noundef %24) #15
  store ptr %25, ptr %22, align 8, !tbaa !34
  %26 = getelementptr inbounds nuw i8, ptr %22, i64 16
  store ptr @ll_ext_merge, ptr %26, align 8, !tbaa !42
  %27 = load ptr, ptr @ll_user_merge_tail, align 8, !tbaa !28
  store ptr %22, ptr %27, align 8, !tbaa !32
  %28 = getelementptr inbounds nuw i8, ptr %22, i64 32
  store ptr %28, ptr @ll_user_merge_tail, align 8, !tbaa !28
  br label %.loopexit

.loopexit:                                        ; preds = %.lr.ph, %.critedge
  %.1 = phi ptr [ %22, %.critedge ], [ %.034, %.lr.ph ]
  %29 = load ptr, ptr %5, align 8, !tbaa !26
  %30 = call i32 @strcmp(ptr noundef nonnull dereferenceable(5) @.str.5, ptr noundef nonnull dereferenceable(1) %29) #17
  %.not27 = icmp eq i32 %30, 0
  br i1 %.not27, label %31, label %34

31:                                               ; preds = %.loopexit
  %32 = getelementptr inbounds nuw i8, ptr %.1, i64 8
  %33 = call i32 @git_config_string(ptr noundef nonnull %32, ptr noundef nonnull %0, ptr noundef %1) #15
  br label %47

34:                                               ; preds = %.loopexit
  %35 = call i32 @strcmp(ptr noundef nonnull dereferenceable(7) @.str.6, ptr noundef nonnull dereferenceable(1) %29) #17
  %.not28 = icmp eq i32 %35, 0
  br i1 %.not28, label %36, label %42

36:                                               ; preds = %34
  %.not29 = icmp eq ptr %1, null
  br i1 %.not29, label %37, label %39

37:                                               ; preds = %36
  %38 = call i32 @config_error_nonbool(ptr noundef nonnull %0) #15
  br label %47

39:                                               ; preds = %36
  %40 = call ptr @xstrdup(ptr noundef nonnull %1) #15
  %41 = getelementptr inbounds nuw i8, ptr %.1, i64 40
  store ptr %40, ptr %41, align 8, !tbaa !45
  br label %47

42:                                               ; preds = %34
  %43 = call i32 @strcmp(ptr noundef nonnull dereferenceable(10) @.str.7, ptr noundef nonnull dereferenceable(1) %29) #17
  %.not30 = icmp eq i32 %43, 0
  br i1 %.not30, label %44, label %47

44:                                               ; preds = %42
  %45 = getelementptr inbounds nuw i8, ptr %.1, i64 24
  %46 = call i32 @git_config_string(ptr noundef nonnull %45, ptr noundef nonnull %0, ptr noundef %1) #15
  br label %47

47:                                               ; preds = %42, %11, %44, %39, %37, %31, %9
  %.023 = phi i32 [ %46, %44 ], [ 0, %39 ], [ -1, %37 ], [ %33, %31 ], [ %10, %9 ], [ 0, %11 ], [ 0, %42 ]
  call void @llvm.lifetime.end.p0(i64 8, ptr nonnull %7) #15
  call void @llvm.lifetime.end.p0(i64 8, ptr nonnull %6) #15
  call void @llvm.lifetime.end.p0(i64 8, ptr nonnull %5) #15
  ret i32 %.023
}